target datalayout = "e-m:e-p270:32:32-p271:32:32-p272:64:64-i64:64-i128:128-f80:128-n8:16:32:64-S128"
target triple = "x86_64-pc-linux-gnu"

%struct.dt_iop_order_iccprofile_info_t = type { i32, [512 x i8], i32, [56 x i8], [4 x [4 x float]], [4 x [4 x float]], i32, [3 x ptr], [3 x ptr], [8 x i8], [3 x [3 x float]], [12 x i8], [3 x [3 x float]], i32, float, [36 x i8], [4 x [4 x float]], [4 x [4 x float]], [3 x [2 x float]], [2 x float], [32 x i8] }

; Function Attrs: inlinehint nounwind uwtable
define internal float @eval_exp(ptr noundef %0, float noundef %1) #2 {
  %3 = alloca ptr, align 8
  %4 = alloca float, align 4
  store ptr %0, ptr %3, align 8, !tbaa !11
  store float %1, ptr %4, align 4, !tbaa !45
  %5 = load ptr, ptr %3, align 8, !tbaa !11
  %6 = getelementptr inbounds float, ptr %5, i64 1
  %7 = load float, ptr %6, align 4, !tbaa !45
  %8 = load float, ptr %4, align 4, !tbaa !45
  %9 = load ptr, ptr %3, align 8, !tbaa !11
  %10 = getelementptr inbounds float, ptr %9, i64 0
  %11 = load float, ptr %10, align 4, !tbaa !45
  %12 = fmul reassoc nsz arcp contract afn float %8, %11
  %13 = load ptr, ptr %3, align 8, !tbaa !11
  %14 = getelementptr inbounds float, ptr %13, i64 2
  %15 = load float, ptr %14, align 4, !tbaa !45
  %16 = call reassoc nsz arcp contract afn float @llvm.pow.f32(float %12, float %15)
  %17 = fmul reassoc nsz arcp contract afn float %7, %16
  ret float %17
}

; Function Attrs: inlinehint nounwind uwtable
define internal float @extrapolate_lut(ptr noundef %0, float noundef %1, i32 noundef %2) #2 {
  %4 = alloca ptr, align 8
  %5 = alloca float, align 4
  %6 = alloca i32, align 4
  %7 = alloca float, align 4
  %8 = alloca i32, align 4
  %9 = alloca float, align 4
  %10 = alloca float, align 4
  %11 = alloca float, align 4
  store ptr %0, ptr %4, align 8, !tbaa !11
  store float %1, ptr %5, align 4, !tbaa !45
  store i32 %2, ptr %6, align 4, !tbaa !36
  call void @llvm.lifetime.start.p0(i64 4, ptr %7) #8
  %12 = load float, ptr %5, align 4, !tbaa !45
  %13 = load i32, ptr %6, align 4, !tbaa !36
  %14 = sub nsw i32 %13, 1
  %15 = sitofp i32 %14 to float
  %16 = fmul reassoc nsz arcp contract afn float %12, %15
  %17 = fcmp reassoc nsz arcp contract afn ogt float %16, 0.000000e+00
  br i1 %17, label %18, label %40

18:                                               ; preds = %3
  %19 = load float, ptr %5, align 4, !tbaa !45
  %20 = load i32, ptr %6, align 4, !tbaa !36
  %21 = sub nsw i32 %20, 1
  %22 = sitofp i32 %21 to float
  %23 = fmul reassoc nsz arcp contract afn float %19, %22
  %24 = load i32, ptr %6, align 4, !tbaa !36
  %25 = sub nsw i32 %24, 1
  %26 = sitofp i32 %25 to float
  %27 = fcmp reassoc nsz arcp contract afn olt float %23, %26
  br i1 %27, label %28, label %34

28:                                               ; preds = %18
  %29 = load float, ptr %5, align 4, !tbaa !45
  %30 = load i32, ptr %6, align 4, !tbaa !36
  %31 = sub nsw i32 %30, 1
  %32 = sitofp i32 %31 to float
  %33 = fmul reassoc nsz arcp contract afn float %29, %32
  br label %38

34:                                               ; preds = %18
  %35 = load i32, ptr %6, align 4, !tbaa !36
  %36 = sub nsw i32 %35, 1
  %37 = sitofp i32 %36 to float
  br label %38

38:                                               ; preds = %34, %28
  %39 = phi reassoc nsz arcp contract afn float [ %33, %28 ], [ %37, %34 ]
  br label %41

40:                                               ; preds = %3
  br label %41

41:                                               ; preds = %40, %38
  %42 = phi reassoc nsz arcp contract afn float [ %39, %38 ], [ 0.000000e+00, %40 ]
  store float %42, ptr %7, align 4, !tbaa !45
  call void @llvm.lifetime.start.p0(i64 4, ptr %8) #8
  %43 = load float, ptr %7, align 4, !tbaa !45
  %44 = load i32, ptr %6, align 4, !tbaa !36
  %45 = sub nsw i32 %44, 2
  %46 = sitofp i32 %45 to float
  %47 = fcmp reassoc nsz arcp contract afn olt float %43, %46
  br i1 %47, label %48, label %50

48:                                               ; preds = %41
  %49 = load float, ptr %7, align 4, !tbaa !45
  br label %54

50:                                               ; preds = %41
  %51 = load i32, ptr %6, align 4, !tbaa !36
  %52 = sub nsw i32 %51, 2
  %53 = sitofp i32 %52 to float
  br label %54

54:                                               ; preds = %50, %48
  %55 = phi reassoc nsz arcp contract afn float [ %49, %48 ], [ %53, %50 ]
  %56 = fptosi float %55 to i32
  store i32 %56, ptr %8, align 4, !tbaa !36
  call void @llvm.lifetime.start.p0(i64 4, ptr %9) #8
  %57 = load float, ptr %7, align 4, !tbaa !45
  %58 = load i32, ptr %8, align 4, !tbaa !36
  %59 = sitofp i32 %58 to float
  %60 = fsub reassoc nsz arcp contract afn float %57, %59
  store float %60, ptr %9, align 4, !tbaa !45
  call void @llvm.lifetime.start.p0(i64 4, ptr %10) #8
  %61 = load ptr, ptr %4, align 8, !tbaa !11
  %62 = load i32, ptr %8, align 4, !tbaa !36
  %63 = sext i32 %62 to i64
  %64 = getelementptr inbounds float, ptr %61, i64 %63
  %65 = load float, ptr %64, align 4, !tbaa !45
  store float %65, ptr %10, align 4, !tbaa !45
  call void @llvm.lifetime.start.p0(i64 4, ptr %11) #8
  %66 = load ptr, ptr %4, align 8, !tbaa !11
  %67 = load i32, ptr %8, align 4, !tbaa !36
  %68 = add nsw i32 %67, 1
  %69 = sext i32 %68 to i64
  %70 = getelementptr inbounds float, ptr %66, i64 %69
  %71 = load float, ptr %70, align 4, !tbaa !45
  store float %71, ptr %11, align 4, !tbaa !45
  %72 = load float, ptr %10, align 4, !tbaa !45
  %73 = load float, ptr %9, align 4, !tbaa !45
  %74 = fsub reassoc nsz arcp contract afn float 1.000000e+00, %73
  %75 = fmul reassoc nsz arcp contract afn float %72, %74
  %76 = load float, ptr %11, align 4, !tbaa !45
  %77 = load float, ptr %9, align 4, !tbaa !45
  %78 = fmul reassoc nsz arcp contract afn float %76, %77
  %79 = fadd reassoc nsz arcp contract afn float %75, %78
  call void @llvm.lifetime.end.p0(i64 4, ptr %11) #8
  call void @llvm.lifetime.end.p0(i64 4, ptr %10) #8
  call void @llvm.lifetime.end.p0(i64 4, ptr %9) #8
  call void @llvm.lifetime.end.p0(i64 4, ptr %8) #8
  call void @llvm.lifetime.end.p0(i64 4, ptr %7) #8
  ret float %79
}

; Function Attrs: inlinehint nounwind uwtable
define internal void @dt_ioppr_apply_trc(ptr noundef %0, ptr noundef %1, ptr noundef %2, ptr noundef %3, i32 noundef %4) #2 {
  %6 = alloca ptr, align 8
  %7 = alloca ptr, align 8
  %8 = alloca ptr, align 8
  %9 = alloca ptr, align 8
  %10 = alloca i32, align 4
  %11 = alloca i32, align 4
  store ptr %0, ptr %6, align 8, !tbaa !11
  store ptr %1, ptr %7, align 8, !tbaa !11
  store ptr %2, ptr %8, align 8, !tbaa !71
  store ptr %3, ptr %9, align 8, !tbaa !11
  store i32 %4, ptr %10, align 4, !tbaa !36
  call void @llvm.lifetime.start.p0(i64 4, ptr %11) #8
  store i32 0, ptr %11, align 4, !tbaa !36
  br label %12

12:                                               ; preds = %71, %5
  %13 = load i32, ptr %11, align 4, !tbaa !36
  %14 = icmp slt i32 %13, 3
  br i1 %14, label %16, label %15

15:                                               ; preds = %12
  call void @llvm.lifetime.end.p0(i64 4, ptr %11) #8
  br label %74

16:                                               ; preds = %12
  %17 = load ptr, ptr %8, align 8, !tbaa !71
  %18 = load i32, ptr %11, align 4, !tbaa !36
  %19 = sext i32 %18 to i64
  %20 = getelementptr inbounds ptr, ptr %17, i64 %19
  %21 = load ptr, ptr %20, align 8, !tbaa !11
  %22 = getelementptr inbounds float, ptr %21, i64 0
  %23 = load float, ptr %22, align 4, !tbaa !45
  %24 = fcmp reassoc nsz arcp contract afn oge float %23, 0.000000e+00
  br i1 %24, label %25, label %59

25:                                               ; preds = %16
  %26 = load ptr, ptr %6, align 8, !tbaa !11
  %27 = load i32, ptr %11, align 4, !tbaa !36
  %28 = sext i32 %27 to i64
  %29 = getelementptr inbounds float, ptr %26, i64 %28
  %30 = load float, ptr %29, align 4, !tbaa !45
  %31 = fcmp reassoc nsz arcp contract afn olt float %30, 1.000000e+00
  br i1 %31, label %32, label %45

32:                                               ; preds = %25
  %33 = load ptr, ptr %8, align 8, !tbaa !71
  %34 = load i32, ptr %11, align 4, !tbaa !36
  %35 = sext i32 %34 to i64
  %36 = getelementptr inbounds ptr, ptr %33, i64 %35
  %37 = load ptr, ptr %36, align 8, !tbaa !11
  %38 = load ptr, ptr %6, align 8, !tbaa !11
  %39 = load i32, ptr %11, align 4, !tbaa !36
  %40 = sext i32 %39 to i64
  %41 = getelementptr inbounds float, ptr %38, i64 %40
  %42 = load float, ptr %41, align 4, !tbaa !45
  %43 = load i32, ptr %10, align 4, !tbaa !36
  %44 = call reassoc nsz arcp contract afn float @extrapolate_lut(ptr noundef %37, float noundef %42, i32 noundef %43)
  br label %57

45:                                               ; preds = %25
  %46 = load ptr, ptr %9, align 8, !tbaa !11
  %47 = load i32, ptr %11, align 4, !tbaa !36
  %48 = sext i32 %47 to i64
  %49 = getelementptr inbounds [3 x float], ptr %46, i64 %48
  %50 = getelementptr inbounds [3 x float], ptr %49, i64 0, i64 0
  %51 = load ptr, ptr %6, align 8, !tbaa !11
  %52 = load i32, ptr %11, align 4, !tbaa !36
  %53 = sext i32 %52 to i64
  %54 = getelementptr inbounds float, ptr %51, i64 %53
  %55 = load float, ptr %54, align 4, !tbaa !45
  %56 = call reassoc nsz arcp contract afn float @eval_exp(ptr noundef %50, float noundef %55)
  br label %57

57:                                               ; preds = %45, %32
  %58 = phi reassoc nsz arcp contract afn float [ %44, %32 ], [ %56, %45 ]
  br label %65

59:                                               ; preds = %16
  %60 = load ptr, ptr %6, align 8, !tbaa !11
  %61 = load i32, ptr %11, align 4, !tbaa !36
  %62 = sext i32 %61 to i64
  %63 = getelementptr inbounds float, ptr %60, i64 %62
  %64 = load float, ptr %63, align 4, !tbaa !45
  br label %65

65:                                               ; preds = %59, %57
  %66 = phi reassoc nsz arcp contract afn float [ %58, %57 ], [ %64, %59 ]
  %67 = load ptr, ptr %7, align 8, !tbaa !11
  %68 = load i32, ptr %11, align 4, !tbaa !36
  %69 = sext i32 %68 to i64
  %70 = getelementptr inbounds float, ptr %67, i64 %69
  store float %66, ptr %70, align 4, !tbaa !45
  br label %71

71:                                               ; preds = %65
  %72 = load i32, ptr %11, align 4, !tbaa !36
  %73 = add nsw i32 %72, 1
  store i32 %73, ptr %11, align 4, !tbaa !36
  br label %12

74:                                               ; preds = %15
  ret void
}

; Function Attrs: inlinehint nounwind uwtable
define internal float @dt_ioppr_get_rgb_matrix_luminance(ptr noundef %0, ptr noundef %1, ptr noundef %2, ptr noundef %3, i32 noundef %4, i32 noundef %5) #2 {
  %7 = alloca ptr, align 8
  %8 = alloca ptr, align 8
  %9 = alloca ptr, align 8
  %10 = alloca ptr, align 8
  %11 = alloca i32, align 4
  %12 = alloca i32, align 4
  %13 = alloca float, align 4
  %14 = alloca [4 x float], align 16
  store ptr %0, ptr %7, align 8, !tbaa !11
  store ptr %1, ptr %8, align 8, !tbaa !11
  store ptr %2, ptr %9, align 8, !tbaa !71
  store ptr %3, ptr %10, align 8, !tbaa !11
  store i32 %4, ptr %11, align 4, !tbaa !36
  store i32 %5, ptr %12, align 4, !tbaa !36
  call void @llvm.lifetime.start.p0(i64 4, ptr %13) #8
  store float 0.000000e+00, ptr %13, align 4, !tbaa !45
  %15 = load i32, ptr %12, align 4, !tbaa !36
  %16 = icmp ne i32 %15, 0
  br i1 %16, label %17, label %46

17:                                               ; preds = %6
  call void @llvm.lifetime.start.p0(i64 16, ptr %14) #8
  %18 = load ptr, ptr %7, align 8, !tbaa !11
  %19 = getelementptr inbounds [4 x float], ptr %14, i64 0, i64 0
  %20 = load ptr, ptr %9, align 8, !tbaa !71
  %21 = load ptr, ptr %10, align 8, !tbaa !11
  %22 = load i32, ptr %11, align 4, !tbaa !36
  call void @dt_ioppr_apply_trc(ptr noundef %18, ptr noundef %19, ptr noundef %20, ptr noundef %21, i32 noundef %22)
  %23 = load ptr, ptr %8, align 8, !tbaa !11
  %24 = getelementptr inbounds [4 x float], ptr %23, i64 1
  %25 = getelementptr inbounds [4 x float], ptr %24, i64 0, i64 0
  %26 = load float, ptr %25, align 4, !tbaa !45
  %27 = getelementptr inbounds [4 x float], ptr %14, i64 0, i64 0
  %28 = load float, ptr %27, align 16, !tbaa !45
  %29 = fmul reassoc nsz arcp contract afn float %26, %28
  %30 = load ptr, ptr %8, align 8, !tbaa !11
  %31 = getelementptr inbounds [4 x float], ptr %30, i64 1
  %32 = getelementptr inbounds [4 x float], ptr %31, i64 0, i64 1
  %33 = load float, ptr %32, align 4, !tbaa !45
  %34 = getelementptr inbounds [4 x float], ptr %14, i64 0, i64 1
  %35 = load float, ptr %34, align 4, !tbaa !45
  %36 = fmul reassoc nsz arcp contract afn float %33, %35
  %37 = fadd reassoc nsz arcp contract afn float %29, %36
  %38 = load ptr, ptr %8, align 8, !tbaa !11
  %39 = getelementptr inbounds [4 x float], ptr %38, i64 1
  %40 = getelementptr inbounds [4 x float], ptr %39, i64 0, i64 2
  %41 = load float, ptr %40, align 4, !tbaa !45
  %42 = getelementptr inbounds [4 x float], ptr %14, i64 0, i64 2
  %43 = load float, ptr %42, align 8, !tbaa !45
  %44 = fmul reassoc nsz arcp contract afn float %41, %43
  %45 = fadd reassoc nsz arcp contract afn float %37, %44
  store float %45, ptr %13, align 4, !tbaa !45
  call void @llvm.lifetime.end.p0(i64 16, ptr %14) #8
  br label %73

46:                                               ; preds = %6
  %47 = load ptr, ptr %8, align 8, !tbaa !11
  %48 = getelementptr inbounds [4 x float], ptr %47, i64 1
  %49 = getelementptr inbounds [4 x float], ptr %48, i64 0, i64 0
  %50 = load float, ptr %49, align 4, !tbaa !45
  %51 = load ptr, ptr %7, align 8, !tbaa !11
  %52 = getelementptr inbounds float, ptr %51, i64 0
  %53 = load float, ptr %52, align 4, !tbaa !45
  %54 = fmul reassoc nsz arcp contract afn float %50, %53
  %55 = load ptr, ptr %8, align 8, !tbaa !11
  %56 = getelementptr inbounds [4 x float], ptr %55, i64 1
  %57 = getelementptr inbounds [4 x float], ptr %56, i64 0, i64 1
  %58 = load float, ptr %57, align 4, !tbaa !45
  %59 = load ptr, ptr %7, align 8, !tbaa !11
  %60 = getelementptr inbounds float, ptr %59, i64 1
  %61 = load float, ptr %60, align 4, !tbaa !45
  %62 = fmul reassoc nsz arcp contract afn float %58, %61
  %63 = fadd reassoc nsz arcp contract afn float %54, %62
  %64 = load ptr, ptr %8, align 8, !tbaa !11
  %65 = getelementptr inbounds [4 x float], ptr %64, i64 1
  %66 = getelementptr inbounds [4 x float], ptr %65, i64 0, i64 2
  %67 = load float, ptr %66, align 4, !tbaa !45
  %68 = load ptr, ptr %7, align 8, !tbaa !11
  %69 = getelementptr inbounds float, ptr %68, i64 2
  %70 = load float, ptr %69, align 4, !tbaa !45
  %71 = fmul reassoc nsz arcp contract afn float %67, %70
  %72 = fadd reassoc nsz arcp contract afn float %63, %71
  store float %72, ptr %13, align 4, !tbaa !45
  br label %73

73:                                               ; preds = %46, %17
  %74 = load float, ptr %13, align 4, !tbaa !45
  call void @llvm.lifetime.end.p0(i64 4, ptr %13) #8
  ret float %74
}

; Function Attrs: inlinehint nounwind uwtable
define internal float @_rgb_luminance(ptr noalias noundef %0, ptr noalias noundef %1) #2 {
  %3 = alloca ptr, align 8
  %4 = alloca ptr, align 8
  %5 = alloca float, align 4
  store ptr %0, ptr %3, align 8, !tbaa !11
  store ptr %1, ptr %4, align 8, !tbaa !47
  call void @llvm.lifetime.start.p0(i64 4, ptr %5) #8
  store float 0.000000e+00, ptr %5, align 4, !tbaa !45
  %6 = load ptr, ptr %4, align 8, !tbaa !47
  %7 = icmp ne ptr %6, null
  br i1 %7, label %8, label %26

8:                                                ; preds = %2
  %9 = load ptr, ptr %3, align 8, !tbaa !11
  %10 = load ptr, ptr %4, align 8, !tbaa !47
  %11 = getelementptr inbounds nuw %struct.dt_iop_order_iccprofile_info_t, ptr %10, i32 0, i32 4
  %12 = getelementptr inbounds [4 x [4 x float]], ptr %11, i64 0, i64 0
  %13 = load ptr, ptr %4, align 8, !tbaa !47
  %14 = getelementptr inbounds nuw %struct.dt_iop_order_iccprofile_info_t, ptr %13, i32 0, i32 7
  %15 = getelementptr inbounds [3 x ptr], ptr %14, i64 0, i64 0
  %16 = load ptr, ptr %4, align 8, !tbaa !47
  %17 = getelementptr inbounds nuw %struct.dt_iop_order_iccprofile_info_t, ptr %16, i32 0, i32 10
  %18 = getelementptr inbounds [3 x [3 x float]], ptr %17, i64 0, i64 0
  %19 = load ptr, ptr %4, align 8, !tbaa !47
  %20 = getelementptr inbounds nuw %struct.dt_iop_order_iccprofile_info_t, ptr %19, i32 0, i32 6
  %21 = load i32, ptr %20, align 64, !tbaa !67
  %22 = load ptr, ptr %4, align 8, !tbaa !47
  %23 = getelementptr inbounds nuw %struct.dt_iop_order_iccprofile_info_t, ptr %22, i32 0, i32 13
  %24 = load i32, ptr %23, align 4, !tbaa !69
  %25 = call reassoc nsz arcp contract afn float @dt_ioppr_get_rgb_matrix_luminance(ptr noundef %9, ptr noundef %12, ptr noundef %15, ptr noundef %18, i32 noundef %21, i32 noundef %24)
  store float %25, ptr %5, align 4, !tbaa !45
  br label %41

26:                                               ; preds = %2
  %27 = load ptr, ptr %3, align 8, !tbaa !11
  %28 = getelementptr inbounds float, ptr %27, i64 0
  %29 = load float, ptr %28, align 4, !tbaa !45
  %30 = fmul reassoc nsz arcp contract afn float 0x3FD3333340000000, %29
  %31 = load ptr, ptr %3, align 8, !tbaa !11
  %32 = getelementptr inbounds float, ptr %31, i64 1
  %33 = load float, ptr %32, align 4, !tbaa !45
  %34 = fmul reassoc nsz arcp contract afn float 0x3FE2E147A0000000, %33
  %35 = fadd reassoc nsz arcp contract afn float %30, %34
  %36 = load ptr, ptr %3, align 8, !tbaa !11
  %37 = getelementptr inbounds float, ptr %36, i64 2
  %38 = load float, ptr %37, align 4, !tbaa !45
  %39 = fmul reassoc nsz arcp contract afn float 0x3FBC28F5C0000000, %38
  %40 = fadd reassoc nsz arcp contract afn float %35, %39
  store float %40, ptr %5, align 4, !tbaa !45
  br label %41

41:                                               ; preds = %26, %8
  %42 = load float, ptr %5, align 4, !tbaa !45
  call void @llvm.lifetime.end.p0(i64 4, ptr %5) #8
  ret float %42
}