; Function Attrs: inlinehint nofree norecurse nosync nounwind memory(read, inaccessiblemem: none) uwtable
define internal fastcc float @_rgb_luminance(ptr noalias noundef readonly captures(none) %0, ptr noalias noundef readonly %1) unnamed_addr #9 {
  %3 = alloca [4 x float], align 16
  %.not = icmp eq ptr %1, null
  br i1 %.not, label %89, label %4

4:                                                ; preds = %2
  %5 = getelementptr inbounds nuw i8, ptr %1, i64 712
  %6 = getelementptr inbounds nuw i8, ptr %1, i64 768
  %7 = getelementptr inbounds nuw i8, ptr %1, i64 852
  %8 = load i32, ptr %7, align 4, !tbaa !46
  %.not.i = icmp eq i32 %8, 0
  br i1 %.not.i, label %72, label %9

9:                                                ; preds = %4
  %10 = getelementptr inbounds nuw i8, ptr %1, i64 704
  %11 = load i32, ptr %10, align 64, !tbaa !55
  call void @llvm.lifetime.start.p0(i64 16, ptr nonnull %3) #8
  %12 = add nsw i32 %11, -1
  %13 = sitofp i32 %12 to float
  %14 = add nsw i32 %11, -2
  %15 = sitofp i32 %14 to float
  br label %16

16:                                               ; preds = %53, %9
  %indvars.iv.i.i = phi i64 [ 0, %9 ], [ %indvars.iv.next.i.i, %53 ]
  %17 = getelementptr inbounds nuw ptr, ptr %5, i64 %indvars.iv.i.i
  %18 = load ptr, ptr %17, align 8, !tbaa !57
  %19 = load float, ptr %18, align 4, !tbaa !36
  %20 = fcmp reassoc nsz arcp contract afn ult float %19, 0.000000e+00
  %21 = getelementptr inbounds nuw float, ptr %0, i64 %indvars.iv.i.i
  %22 = load float, ptr %21, align 4, !tbaa !36
  br i1 %20, label %53, label %23

23:                                               ; preds = %16
  %24 = fcmp reassoc nsz arcp contract afn olt float %22, 1.000000e+00
  br i1 %24, label %25, label %43

25:                                               ; preds = %23
  %26 = fmul reassoc nsz arcp contract afn float %22, %13
  %27 = fcmp reassoc nsz arcp contract afn ogt float %26, 0.000000e+00
  %28 = fcmp reassoc nsz arcp contract afn olt float %26, %13
  %..i.i.i = select reassoc nsz arcp contract afn i1 %28, float %26, float %13
  %29 = select reassoc nsz arcp contract afn i1 %27, float %..i.i.i, float 0.000000e+00
  %30 = fcmp reassoc nsz arcp contract afn olt float %29, %15
  %31 = select reassoc nsz arcp contract afn i1 %30, float %29, float %15
  %32 = fptosi float %31 to i32
  %33 = sitofp i32 %32 to float
  %34 = fsub reassoc nsz arcp contract afn float %29, %33
  %35 = sext i32 %32 to i64
  %36 = getelementptr inbounds float, ptr %18, i64 %35
  %37 = load float, ptr %36, align 4, !tbaa !36
  %38 = getelementptr i8, ptr %36, i64 4
  %39 = load float, ptr %38, align 4, !tbaa !36
  %40 = fsub reassoc nsz arcp contract afn float %39, %37
  %41 = fmul reassoc nsz arcp contract afn float %40, %34
  %42 = fadd reassoc nsz arcp contract afn float %41, %37
  br label %53

43:                                               ; preds = %23
  %44 = getelementptr inbounds nuw [3 x float], ptr %6, i64 %indvars.iv.i.i
  %45 = getelementptr inbounds nuw i8, ptr %44, i64 4
  %46 = load float, ptr %45, align 4, !tbaa !36
  %47 = load float, ptr %44, align 4, !tbaa !36
  %48 = fmul reassoc nsz arcp contract afn float %47, %22
  %49 = getelementptr inbounds nuw i8, ptr %44, i64 8
  %50 = load float, ptr %49, align 4, !tbaa !36
  %51 = tail call reassoc nsz arcp contract afn float @llvm.pow.f32(float %48, float %50)
  %52 = fmul reassoc nsz arcp contract afn float %51, %46
  br label %53

53:                                               ; preds = %43, %25, %16
  %54 = phi reassoc nsz arcp contract afn float [ %42, %25 ], [ %52, %43 ], [ %22, %16 ]
  %55 = getelementptr inbounds nuw float, ptr %3, i64 %indvars.iv.i.i
  store float %54, ptr %55, align 4, !tbaa !36
  %indvars.iv.next.i.i = add nuw nsw i64 %indvars.iv.i.i, 1
  %exitcond.not.i.i = icmp eq i64 %indvars.iv.next.i.i, 3
  br i1 %exitcond.not.i.i, label %dt_ioppr_apply_trc.exit.i, label %16

dt_ioppr_apply_trc.exit.i:                        ; preds = %53
  %56 = getelementptr inbounds nuw i8, ptr %1, i64 592
  %57 = load float, ptr %56, align 4, !tbaa !36
  %58 = load float, ptr %3, align 16, !tbaa !36
  %59 = fmul reassoc nsz arcp contract afn float %58, %57
  %60 = getelementptr inbounds nuw i8, ptr %1, i64 596
  %61 = load float, ptr %60, align 4, !tbaa !36
  %62 = getelementptr inbounds nuw i8, ptr %3, i64 4
  %63 = load float, ptr %62, align 4, !tbaa !36
  %64 = fmul reassoc nsz arcp contract afn float %63, %61
  %65 = fadd reassoc nsz arcp contract afn float %64, %59
  %66 = getelementptr inbounds nuw i8, ptr %1, i64 600
  %67 = load float, ptr %66, align 4, !tbaa !36
  %68 = getelementptr inbounds nuw i8, ptr %3, i64 8
  %69 = load float, ptr %68, align 8, !tbaa !36
  %70 = fmul reassoc nsz arcp contract afn float %69, %67
  %71 = fadd reassoc nsz arcp contract afn float %65, %70
  call void @llvm.lifetime.end.p0(i64 16, ptr nonnull %3) #8
  br label %dt_ioppr_get_rgb_matrix_luminance.exit

72:                                               ; preds = %4
  %73 = getelementptr inbounds nuw i8, ptr %1, i64 592
  %74 = load float, ptr %73, align 4, !tbaa !36
  %75 = load float, ptr %0, align 4, !tbaa !36
  %76 = fmul reassoc nsz arcp contract afn float %75, %74
  %77 = getelementptr inbounds nuw i8, ptr %1, i64 596
  %78 = load float, ptr %77, align 4, !tbaa !36
  %79 = getelementptr inbounds nuw i8, ptr %0, i64 4
  %80 = load float, ptr %79, align 4, !tbaa !36
  %81 = fmul reassoc nsz arcp contract afn float %80, %78
  %82 = fadd reassoc nsz arcp contract afn float %81, %76
  %83 = getelementptr inbounds nuw i8, ptr %1, i64 600
  %84 = load float, ptr %83, align 4, !tbaa !36
  %85 = getelementptr inbounds nuw i8, ptr %0, i64 8
  %86 = load float, ptr %85, align 4, !tbaa !36
  %87 = fmul reassoc nsz arcp contract afn float %86, %84
  %88 = fadd reassoc nsz arcp contract afn float %82, %87
  br label %dt_ioppr_get_rgb_matrix_luminance.exit

89:                                               ; preds = %2
  %90 = load float, ptr %0, align 4, !tbaa !36
  %91 = fmul reassoc nsz arcp contract afn float %90, 0x3FD3333340000000
  %92 = getelementptr inbounds nuw i8, ptr %0, i64 4
  %93 = load float, ptr %92, align 4, !tbaa !36
  %94 = fmul reassoc nsz arcp contract afn float %93, 0x3FE2E147A0000000
  %95 = fadd reassoc nsz arcp contract afn float %94, %91
  %96 = getelementptr inbounds nuw i8, ptr %0, i64 8
  %97 = load float, ptr %96, align 4, !tbaa !36
  %98 = fmul reassoc nsz arcp contract afn float %97, 0x3FBC28F5C0000000
  %99 = fadd reassoc nsz arcp contract afn float %95, %98
  br label %dt_ioppr_get_rgb_matrix_luminance.exit

dt_ioppr_get_rgb_matrix_luminance.exit:           ; preds = %72, %dt_ioppr_apply_trc.exit.i, %89
  %.0 = phi nsz float [ %99, %89 ], [ %71, %dt_ioppr_apply_trc.exit.i ], [ %88, %72 ]
  ret float %.0
}